
Substraction.o:     file format pe-i386


Disassembly of section .text:

00000000 <_main>:
   0:	55                   	push   ebp
   1:	89 e5                	mov    ebp,esp
   3:	83 e4 f0             	and    esp,0xfffffff0
   6:	83 ec 20             	sub    esp,0x20
   9:	e8 00 00 00 00       	call   e <_main+0xe>
   e:	c7 44 24 1c 13 00 00 	mov    DWORD PTR [esp+0x1c],0x13
  15:	00 
  16:	c7 04 24 00 00 00 00 	mov    DWORD PTR [esp],0x0
  1d:	e8 00 00 00 00       	call   22 <_main+0x22>
  22:	8d 44 24 14          	lea    eax,[esp+0x14]
  26:	89 44 24 04          	mov    DWORD PTR [esp+0x4],eax
  2a:	c7 04 24 16 00 00 00 	mov    DWORD PTR [esp],0x16
  31:	e8 00 00 00 00       	call   36 <_main+0x36>
  36:	8b 44 24 14          	mov    eax,DWORD PTR [esp+0x14]
  3a:	2b 44 24 1c          	sub    eax,DWORD PTR [esp+0x1c]
  3e:	89 44 24 18          	mov    DWORD PTR [esp+0x18],eax
  42:	8b 44 24 14          	mov    eax,DWORD PTR [esp+0x14]
  46:	8b 54 24 18          	mov    edx,DWORD PTR [esp+0x18]
  4a:	89 54 24 0c          	mov    DWORD PTR [esp+0xc],edx
  4e:	8b 54 24 1c          	mov    edx,DWORD PTR [esp+0x1c]
  52:	89 54 24 08          	mov    DWORD PTR [esp+0x8],edx
  56:	89 44 24 04          	mov    DWORD PTR [esp+0x4],eax
  5a:	c7 04 24 19 00 00 00 	mov    DWORD PTR [esp],0x19
  61:	e8 00 00 00 00       	call   66 <_main+0x66>
  66:	b8 00 00 00 00       	mov    eax,0x0
  6b:	c9                   	leave  
  6c:	c3                   	ret    
  6d:	90                   	nop
  6e:	90                   	nop
  6f:	90                   	nop
